; Function Attrs: nofree norecurse nosync nounwind memory(argmem: write) uwtable
define void @lv_timer_set_repeat_count(ptr noundef writeonly %0, i32 noundef %1) local_unnamed_addr #2 {
  %.not = icmp eq ptr %0, null
  br i1 %.not, label %.preheader, label %3

.preheader:                                       ; preds = %2, %.preheader
  br label %.preheader

3:                                                ; preds = %2
  %4 = getelementptr inbounds nuw i8, ptr %0, i64 24
  store i32 %1, ptr %4, align 8, !tbaa !32
  ret void
}